; Function Attrs: nounwind sspstrong uwtable
define dso_local ptr @target_strerror(i32 noundef %err) local_unnamed_addr #2 {
entry:
  switch i32 %err, label %if.end3 [
    i32 512, label %return
    i32 513, label %if.then2
  ]

if.then2:                                         ; preds = %entry
  br label %return

if.end3:                                          ; preds = %entry
  %call4 = tail call ptr @strerror(i32 noundef %err) #27
  br label %return

return:                                           ; preds = %entry, %if.end3, %if.then2
  %retval.0 = phi ptr [ @.str.1, %if.then2 ], [ %call4, %if.end3 ], [ @.str, %entry ]
  ret ptr %retval.0
}